; Function Attrs: nofree norecurse nosync nounwind memory(readwrite, inaccessiblemem: none) uwtable
define range(i32 -2147483647, -2147483648) i32 @Min_ManBitPackOne(ptr noundef readonly captures(none) %0, i32 noundef %1, i32 noundef %2, ptr noundef readonly captures(none) %3) local_unnamed_addr #6 {
  %5 = shl nsw i32 %2, 6
  %6 = add nsw i32 %1, 1
  %7 = getelementptr i8, ptr %3, i64 4
  %.val40.i = load i32, ptr %7, align 4, !tbaa !30
  %8 = icmp sgt i32 %.val40.i, 0
  %wide.trip.count.i = zext nneg i32 %.val40.i to i64
  br i1 %8, label %.split.us, label %Min_ManBitPackTry.exit.thread

.split.us:                                        ; preds = %4
  %9 = getelementptr i8, ptr %0, i64 4
  %10 = getelementptr i8, ptr %0, i64 8
  %11 = getelementptr i8, ptr %3, i64 8
  %.val42.i.us = load ptr, ptr %11, align 8, !tbaa !32
  %.val43.i.us = load ptr, ptr %10, align 8, !tbaa !136
  %.val45.i.us = load i32, ptr %9, align 4, !tbaa !138
  %12 = sext i32 %.val45.i.us to i64
  br label %.lr.ph.i.us

.lr.ph.i.us:                                      ; preds = %Min_ManBitPackTry.exit.us, %.split.us
  %.020.us = phi i32 [ %6, %.split.us ], [ %37, %Min_ManBitPackTry.exit.us ]
  %13 = ashr i32 %.020.us, 5
  %14 = sext i32 %13 to i64
  %15 = and i32 %.020.us, 31
  %16 = shl nuw i32 1, %15
  br label %17

17:                                               ; preds = %.critedge39.i.us, %.lr.ph.i.us
  %indvars.iv.i.us = phi i64 [ 0, %.lr.ph.i.us ], [ %indvars.iv.next.i.us, %.critedge39.i.us ]
  %18 = getelementptr inbounds nuw i32, ptr %.val42.i.us, i64 %indvars.iv.i.us
  %19 = load i32, ptr %18, align 4, !tbaa !35
  %20 = add nsw i32 %19, -2
  %21 = ashr i32 %20, 1
  %22 = mul nsw i32 %21, %2
  %23 = sext i32 %22 to i64
  %24 = getelementptr inbounds i64, ptr %.val43.i.us, i64 %23
  %25 = getelementptr inbounds i64, ptr %24, i64 %12
  %26 = getelementptr inbounds i32, ptr %25, i64 %14
  %27 = load i32, ptr %26, align 4, !tbaa !35
  %28 = and i32 %27, %16
  %.not.i.us = icmp eq i32 %28, 0
  br i1 %.not.i.us, label %.critedge39.i.us, label %29

29:                                               ; preds = %17
  %30 = getelementptr inbounds i32, ptr %24, i64 %14
  %31 = load i32, ptr %30, align 4, !tbaa !35
  %32 = lshr i32 %31, %15
  %33 = xor i32 %32, %19
  %34 = and i32 %33, 1
  %35 = icmp eq i32 %34, 0
  br i1 %35, label %Min_ManBitPackTry.exit.us, label %.critedge39.i.us

Min_ManBitPackTry.exit.us:                        ; preds = %29
  %36 = add nsw i32 %.020.us, 1
  %37 = srem i32 %36, %5
  %.not.us = icmp eq i32 %37, %1
  br i1 %.not.us, label %Min_ManBitPackTry.exit.thread, label %.lr.ph.i.us, !llvm.loop !141

.critedge39.i.us:                                 ; preds = %29, %17
  %indvars.iv.next.i.us = add nuw nsw i64 %indvars.iv.i.us, 1
  %exitcond.not.i.us = icmp eq i64 %indvars.iv.next.i.us, %wide.trip.count.i
  br i1 %exitcond.not.i.us, label %.critedge.preheader.i, label %17, !llvm.loop !139

.critedge.preheader.i:                            ; preds = %.critedge39.i.us, %.critedge.i
  %indvars.iv55.i = phi i64 [ %indvars.iv.next56.i, %.critedge.i ], [ 0, %.critedge39.i.us ]
  %38 = getelementptr inbounds nuw i32, ptr %.val42.i.us, i64 %indvars.iv55.i
  %39 = load i32, ptr %38, align 4, !tbaa !35
  %40 = add nsw i32 %39, -2
  %41 = ashr i32 %40, 1
  %42 = mul nsw i32 %41, %2
  %43 = sext i32 %42 to i64
  %44 = getelementptr inbounds i64, ptr %.val43.i.us, i64 %43
  %.val46.i = load i32, ptr %9, align 4, !tbaa !138
  %45 = sext i32 %.val46.i to i64
  %46 = getelementptr inbounds i64, ptr %44, i64 %45
  %47 = getelementptr inbounds i32, ptr %46, i64 %14
  %48 = load i32, ptr %47, align 4, !tbaa !35
  %49 = or i32 %48, %16
  store i32 %49, ptr %47, align 4, !tbaa !35
  %50 = getelementptr inbounds i32, ptr %44, i64 %14
  %51 = load i32, ptr %50, align 4, !tbaa !35
  %52 = lshr i32 %51, %15
  %53 = xor i32 %52, %39
  %54 = and i32 %53, 1
  %55 = icmp eq i32 %54, 0
  br i1 %55, label %56, label %.critedge.i

56:                                               ; preds = %.critedge.preheader.i
  %57 = xor i32 %51, %16
  store i32 %57, ptr %50, align 4, !tbaa !35
  br label %.critedge.i

.critedge.i:                                      ; preds = %56, %.critedge.preheader.i
  %indvars.iv.next56.i = add nuw nsw i64 %indvars.iv55.i, 1
  %.val.i = load i32, ptr %7, align 4, !tbaa !30
  %58 = sext i32 %.val.i to i64
  %59 = icmp slt i64 %indvars.iv.next56.i, %58
  br i1 %59, label %.critedge.preheader.i, label %Min_ManBitPackTry.exit.thread, !llvm.loop !140

Min_ManBitPackTry.exit.thread:                    ; preds = %Min_ManBitPackTry.exit.us, %.critedge.i, %4
  %.015 = phi i32 [ %6, %4 ], [ %.020.us, %.critedge.i ], [ %1, %Min_ManBitPackTry.exit.us ]
  ret i32 %.015
}